
/home/aleksashqa/edu/git/scr1/build/verilator_wf_AHB_MAX_imc_IPIC_1_TCM_1_VIRQ_1_TRACE_1/ma_fetch.elf:     file format elf32-littleriscv


Disassembly of section .text.init:

00000000 <SIM_EXIT-0xf4>:
	...

000000f4 <SIM_EXIT>:
  f4:	00000013          	nop

000000f8 <SIM_STOP>:
  f8:	0000006f          	j	f8 <SIM_STOP>
  fc:	ffff                	0xffff
  fe:	ffff                	0xffff
	...

000008c0 <trap_vector>:
 8c0:	34202773          	csrr	a4,mcause
 8c4:	4785                	li	a5,1
 8c6:	8ff9                	and	a5,a5,a4
 8c8:	c385                	beqz	a5,8e8 <skip_print>
 8ca:	f0000837          	lui	a6,0xf0000
 8ce:	0000a897          	auipc	a7,0xa
 8d2:	17288893          	addi	a7,a7,370 # aa40 <MSG_TRAP>

000008d6 <next_iter>:
 8d6:	00088783          	lb	a5,0(a7)
 8da:	c791                	beqz	a5,8e6 <break_from_loop>
 8dc:	00f82023          	sw	a5,0(a6) # f0000000 <__global_pointer$+0xefff4b78>
 8e0:	0885                	addi	a7,a7,1
 8e2:	ff5ff06f          	j	8d6 <next_iter>

000008e6 <break_from_loop>:
 8e6:	a035                	j	912 <_report>

000008e8 <skip_print>:
 8e8:	47a1                	li	a5,8
 8ea:	02f70463          	beq	a4,a5,912 <_report>
 8ee:	47a5                	li	a5,9
 8f0:	02f70163          	beq	a4,a5,912 <_report>
 8f4:	47ad                	li	a5,11
 8f6:	00f70e63          	beq	a4,a5,912 <_report>
 8fa:	0000a717          	auipc	a4,0xa
 8fe:	27270713          	addi	a4,a4,626 # ab6c <mtvec_handler>
 902:	c311                	beqz	a4,906 <skip_print+0x1e>
 904:	8702                	jr	a4
 906:	34202773          	csrr	a4,mcause
 90a:	00075363          	bgez	a4,910 <handle_exception>
 90e:	a009                	j	910 <handle_exception>

00000910 <handle_exception>:
 910:	4505                	li	a0,1

00000912 <_report>:
 912:	2ce0a06f          	j	abe0 <sc_exit>
 916:	00000013          	nop
 91a:	00000013          	nop
 91e:	00000013          	nop
 922:	00000013          	nop
 926:	00000013          	nop
 92a:	00000013          	nop
 92e:	00000013          	nop
 932:	00000013          	nop
 936:	00000013          	nop
 93a:	00000013          	nop
 93e:	0001                	nop
	...

Disassembly of section .text.start:

0000a000 <_start>:
    a000:	f1402573          	csrr	a0,mhartid
    a004:	e101                	bnez	a0,a004 <_start+0x4>
    a006:	4e01                	li	t3,0
    a008:	ffff7297          	auipc	t0,0xffff7
    a00c:	8b828293          	addi	t0,t0,-1864 # 8c0 <trap_vector>
    a010:	30529073          	csrw	mtvec,t0
    a014:	4505                	li	a0,1
    a016:	057e                	slli	a0,a0,0x1f
    a018:	00054863          	bltz	a0,a028 <_start+0x28>
    a01c:	0ff0000f          	fence
    a020:	85f2                	mv	a1,t3
    a022:	4501                	li	a0,0
    a024:	00000073          	ecall
    a028:	00000293          	li	t0,0
    a02c:	00028f63          	beqz	t0,a04a <_start+0x4a>
    a030:	10529073          	csrw	stvec,t0
    a034:	62ad                	lui	t0,0xb
    a036:	10928293          	addi	t0,t0,265 # b109 <_end+0x469>
    a03a:	30229073          	csrw	medeleg,t0
    a03e:	30202373          	csrr	t1,medeleg
    a042:	00628463          	beq	t0,t1,a04a <_start+0x4a>
    a046:	8cbf606f          	j	910 <handle_exception>
    a04a:	30005073          	csrwi	mstatus,0
    a04e:	6509                	lui	a0,0x2
    a050:	80050513          	addi	a0,a0,-2048 # 1800 <_report+0xeee>
    a054:	30052073          	csrs	mstatus,a0
    a058:	00001297          	auipc	t0,0x1
    a05c:	9f228293          	addi	t0,t0,-1550 # aa4a <_run_test>
    a060:	34129073          	csrw	mepc,t0
    a064:	f1402573          	csrr	a0,mhartid
    a068:	30200073          	mret

Disassembly of section .text:

0000a080 <MSG_TRAP-0x9c0>:
	...

0000aa40 <MSG_TRAP>:
    aa40:	696d                	lui	s2,0x1b
    aa42:	696c6173          	csrrsi	sp,0x696,24
    aa46:	00206e67          	0x206e67

0000aa4a <_run_test>:
    aa4a:	0001                	nop
    aa4c:	00200e13          	li	t3,2
    aa50:	00000313          	li	t1,0
    aa54:	00000297          	auipc	t0,0x0
    aa58:	00c28293          	addi	t0,t0,12 # aa60 <_run_test+0x16>
    aa5c:	00228367          	jalr	t1,2(t0)
    aa60:	a011                	j	aa64 <_run_test+0x1a>
    aa62:	a019                	j	aa68 <_run_test+0x1e>
    aa64:	0e80006f          	j	ab4c <fail>
    aa68:	00300e13          	li	t3,3
    aa6c:	00000297          	auipc	t0,0x0
    aa70:	00c28293          	addi	t0,t0,12 # aa78 <_run_test+0x2e>
    aa74:	00128367          	jalr	t1,1(t0)
    aa78:	0080006f          	j	aa80 <_run_test+0x36>
    aa7c:	0d00006f          	j	ab4c <fail>
    aa80:	00400e13          	li	t3,4
    aa84:	00000313          	li	t1,0
    aa88:	00000297          	auipc	t0,0x0
    aa8c:	00c28293          	addi	t0,t0,12 # aa94 <_run_test+0x4a>
    aa90:	00328367          	jalr	t1,3(t0)
    aa94:	a011                	j	aa98 <_run_test+0x4e>
    aa96:	a019                	j	aa9c <_run_test+0x52>
    aa98:	0b40006f          	j	ab4c <fail>
    aa9c:	00500e13          	li	t3,5
    aaa0:	00000313          	li	t1,0
    aaa4:	00000297          	auipc	t0,0x0
    aaa8:	00c28293          	addi	t0,t0,12 # aab0 <_run_test+0x66>
    aaac:	0060036f          	jal	t1,aab2 <_run_test+0x68>
    aab0:	a011                	j	aab4 <_run_test+0x6a>
    aab2:	a019                	j	aab8 <_run_test+0x6e>
    aab4:	0980006f          	j	ab4c <fail>
    aab8:	00600e13          	li	t3,6
    aabc:	00000313          	li	t1,0
    aac0:	00000297          	auipc	t0,0x0
    aac4:	00c28293          	addi	t0,t0,12 # aacc <_run_test+0x82>
    aac8:	00000363          	beqz	zero,aace <_run_test+0x84>
    aacc:	a011                	j	aad0 <_run_test+0x86>
    aace:	a019                	j	aad4 <_run_test+0x8a>
    aad0:	07c0006f          	j	ab4c <fail>
    aad4:	00700e13          	li	t3,7
    aad8:	00001563          	bnez	zero,aae2 <_run_test+0x98>
    aadc:	00c0006f          	j	aae8 <_run_test+0x9e>
    aae0:	a009                	j	aae2 <_run_test+0x98>
    aae2:	a009                	j	aae4 <_run_test+0x9a>
    aae4:	0680006f          	j	ab4c <fail>
    aae8:	00800e13          	li	t3,8
    aaec:	301023f3          	csrr	t2,misa
    aaf0:	0043f393          	andi	t2,t2,4
    aaf4:	04038863          	beqz	t2,ab44 <_run_test+0xfa>
    aaf8:	0001                	nop
    aafa:	30127073          	csrci	misa,4
    aafe:	0001                	nop
    ab00:	301023f3          	csrr	t2,misa
    ab04:	0043f393          	andi	t2,t2,4
    ab08:	04038263          	beqz	t2,ab4c <fail>
    ab0c:	00000297          	auipc	t0,0x0
    ab10:	03428293          	addi	t0,t0,52 # ab40 <_run_test+0xf6>
    ab14:	ffe28293          	addi	t0,t0,-2
    ab18:	34129073          	csrw	mepc,t0
    ab1c:	30127073          	csrci	misa,4
    ab20:	301023f3          	csrr	t2,misa
    ab24:	0043f393          	andi	t2,t2,4
    ab28:	00039e63          	bnez	t2,ab44 <_run_test+0xfa>
    ab2c:	000023b7          	lui	t2,0x2
    ab30:	80038393          	addi	t2,t2,-2048 # 1800 <_report+0xeee>
    ab34:	3003a073          	csrs	mstatus,t2
    ab38:	30200073          	mret
    ab3c:	00000263          	beqz	zero,ab40 <_run_test+0xf6>
    ab40:	30126073          	csrsi	misa,4
    ab44:	0180006f          	j	ab5c <pass>
    ab48:	01c01a63          	bne	zero,t3,ab5c <pass>

0000ab4c <fail>:
    ab4c:	0ff0000f          	fence
    ab50:	000e0593          	mv	a1,t3
    ab54:	00100513          	li	a0,1
    ab58:	00000073          	ecall

0000ab5c <pass>:
    ab5c:	0ff0000f          	fence
    ab60:	000e0593          	mv	a1,t3
    ab64:	00000513          	li	a0,0
    ab68:	00000073          	ecall

0000ab6c <mtvec_handler>:
    ab6c:	00200513          	li	a0,2
    ab70:	02ae0063          	beq	t3,a0,ab90 <mtvec_handler+0x24>
    ab74:	00400513          	li	a0,4
    ab78:	00ae0c63          	beq	t3,a0,ab90 <mtvec_handler+0x24>
    ab7c:	00500513          	li	a0,5
    ab80:	00ae0863          	beq	t3,a0,ab90 <mtvec_handler+0x24>
    ab84:	00600513          	li	a0,6
    ab88:	00ae0463          	beq	t3,a0,ab90 <mtvec_handler+0x24>
    ab8c:	fc1ff06f          	j	ab4c <fail>
    ab90:	fa031ee3          	bnez	t1,ab4c <fail>
    ab94:	00000593          	li	a1,0
    ab98:	34202573          	csrr	a0,mcause
    ab9c:	fab518e3          	bne	a0,a1,ab4c <fail>
    aba0:	341025f3          	csrr	a1,mepc
    aba4:	00458593          	addi	a1,a1,4
    aba8:	fab292e3          	bne	t0,a1,ab4c <fail>
    abac:	34302573          	csrr	a0,mtval
    abb0:	00050663          	beqz	a0,abbc <mtvec_handler+0x50>
    abb4:	ffe50513          	addi	a0,a0,-2
    abb8:	f8551ae3          	bne	a0,t0,ab4c <fail>
    abbc:	00c58593          	addi	a1,a1,12
    abc0:	34159073          	csrw	mepc,a1
    abc4:	30200073          	mret

0000abc8 <ecall>:
    abc8:	00000073          	ecall
	...

0000abe0 <sc_exit>:
    abe0:	ffff5297          	auipc	t0,0xffff5
    abe4:	51428293          	addi	t0,t0,1300 # f4 <SIM_EXIT>
    abe8:	8282                	jr	t0
    abea:	00000013          	nop
    abee:	00000013          	nop
    abf2:	00000013          	nop
    abf6:	00000013          	nop
    abfa:	00000013          	nop
    abfe:	0001                	nop
	...

Disassembly of section .tohost:

0000ac40 <tohost>:
	...

0000ac80 <fromhost>:
	...
